Certificate:
    Data:
        Version: 3 (0x2)
        Serial Number: 6 (0x6)
        Signature Algorithm: sha256WithRSAEncryption
        Issuer: C=CH, ST=VD, L=Lausanne, O=IMovies, OU=CA, CN=imovies/emailAddress=admin@imovies.ch
        Validity
            Not Before: Nov 25 16:14:21 2021 GMT
            Not After : Nov 25 16:14:21 2022 GMT
        Subject: C=CH, ST=VD, O=IMovies, OU=Intermediate, CN=caserver.imovies/emailAddress=admin@imovies.ch
        Subject Public Key Info:
            Public Key Algorithm: rsaEncryption
                RSA Public-Key: (2048 bit)
                Modulus:
                    00:f0:65:4e:9b:60:4e:cc:3e:76:6f:f2:2c:a2:4d:
                    d6:15:e7:27:c1:14:c9:a2:f2:e1:ca:ef:23:56:ab:
                    4d:68:8e:dc:88:4d:a6:9e:70:00:a0:75:af:50:2f:
                    64:ff:45:61:98:c1:65:06:b1:0c:44:4f:99:33:c4:
                    e2:e6:5a:96:56:b1:86:28:4c:43:aa:6e:40:28:7c:
                    ef:71:42:fc:ed:ca:37:7f:12:7c:d7:4f:f0:f4:00:
                    b2:9d:00:2e:b7:96:19:6a:24:de:44:15:23:ed:d5:
                    24:fe:48:85:0f:dd:4d:eb:06:3d:31:32:f4:d2:35:
                    38:75:f8:e8:6e:72:48:32:8e:26:7f:95:42:ba:87:
                    17:ed:70:9a:ba:d6:78:17:99:44:25:18:d3:f9:40:
                    b4:0d:d0:58:97:bb:43:65:7c:26:07:a8:fb:7e:c2:
                    ce:e3:a1:c4:d7:16:e9:d4:99:b8:c2:eb:ff:ea:d6:
                    a2:ed:ce:62:c5:a8:d4:d3:53:89:0b:aa:e4:6f:b8:
                    f1:6e:ed:84:5c:0e:f0:cf:5c:55:d1:6f:09:a6:38:
                    39:f2:5e:3e:57:e8:ca:11:e0:8e:08:9a:0c:ea:c9:
                    37:33:f8:60:0e:55:63:78:79:f1:b7:ad:58:97:14:
                    2d:52:b8:1d:59:89:d3:a0:ca:1d:0b:8f:38:73:48:
                    62:bb
                Exponent: 65537 (0x10001)
        X509v3 extensions:
            X509v3 Subject Key Identifier: 
                4B:F9:85:FD:10:99:B3:36:C7:A2:7E:B8:AD:B0:E4:38:6F:3E:3A:8B
            X509v3 Authority Key Identifier: 
                keyid:DC:C3:11:DD:68:A2:09:A7:58:FF:7E:C3:F1:31:04:93:2B:76:4E:CB

            X509v3 Basic Constraints: critical
                CA:TRUE, pathlen:0
            X509v3 Key Usage: critical
                Digital Signature, Certificate Sign, CRL Sign
    Signature Algorithm: sha256WithRSAEncryption
         22:72:1b:14:89:13:e9:89:58:d1:66:58:d5:2a:f5:66:4e:2d:
         e5:1d:b9:d0:f4:95:c0:fa:57:53:f4:93:f2:67:ed:10:50:b7:
         70:6b:09:62:76:3a:b2:97:3d:68:60:bf:6e:9c:99:d9:24:47:
         15:1b:92:e3:b6:2d:6d:0e:0d:26:0c:a9:bd:b6:fd:d4:56:cf:
         78:55:f8:f3:84:ca:86:aa:f1:58:e2:88:01:09:f2:a7:ed:cb:
         c7:39:06:c5:64:b7:0b:3b:2e:96:cf:c0:f7:07:3a:1b:62:e4:
         fa:da:54:16:ca:ea:e6:6e:ea:8c:f2:89:98:a5:71:0d:b0:53:
         c4:78:df:3b:41:c8:87:e4:84:88:dc:89:01:05:15:13:12:75:
         d2:56:7f:2c:b3:b0:84:08:16:9c:3b:9d:ef:84:76:08:34:2d:
         74:47:92:56:cd:ec:b6:a9:d7:3f:42:35:80:c7:c0:1a:8b:52:
         f6:57:64:37:d8:f4:99:69:03:2a:03:f4:61:a2:f2:8c:46:fa:
         f2:86:0c:a6:e6:35:f5:d9:c0:1a:be:5d:c0:2e:8a:fd:a7:81:
         37:dd:fd:e4:56:4d:a5:d7:5d:02:3e:29:b3:73:fc:f0:96:4e:
         f8:87:db:24:c2:eb:0d:ca:b1:70:7d:6b:ca:46:2b:a4:35:89:
         02:e9:d8:15
-----BEGIN CERTIFICATE-----
MIID3zCCAsegAwIBAgIBBjANBgkqhkiG9w0BAQsFADB/MQswCQYDVQQGEwJDSDEL
MAkGA1UECAwCVkQxETAPBgNVBAcMCExhdXNhbm5lMRAwDgYDVQQKDAdJTW92aWVz
MQswCQYDVQQLDAJDQTEQMA4GA1UEAwwHaW1vdmllczEfMB0GCSqGSIb3DQEJARYQ
YWRtaW5AaW1vdmllcy5jaDAeFw0yMTExMjUxNjE0MjFaFw0yMjExMjUxNjE0MjFa
MH8xCzAJBgNVBAYTAkNIMQswCQYDVQQIDAJWRDEQMA4GA1UECgwHSU1vdmllczEV
MBMGA1UECwwMSW50ZXJtZWRpYXRlMRkwFwYDVQQDDBBjYXNlcnZlci5pbW92aWVz
MR8wHQYJKoZIhvcNAQkBFhBhZG1pbkBpbW92aWVzLmNoMIIBIjANBgkqhkiG9w0B
AQEFAAOCAQ8AMIIBCgKCAQEA8GVOm2BOzD52b/Isok3WFecnwRTJovLhyu8jVqtN
aI7ciE2mnnAAoHWvUC9k/0VhmMFlBrEMRE+ZM8Ti5lqWVrGGKExDqm5AKHzvcUL8
7co3fxJ810/w9ACynQAut5YZaiTeRBUj7dUk/kiFD91N6wY9MTL00jU4dfjobnJI
Mo4mf5VCuocX7XCautZ4F5lEJRjT+UC0DdBYl7tDZXwmB6j7fsLO46HE1xbp1Jm4
wuv/6tai7c5ixajU01OJC6rkb7jxbu2EXA7wz1xV0W8Jpjg58l4+V+jKEeCOCJoM
6sk3M/hgDlVjeHnxt61YlxQtUrgdWYnToModC484c0hiuwIDAQABo2YwZDAdBgNV
HQ4EFgQUS/mF/RCZszbHon64rbDkOG8+OoswHwYDVR0jBBgwFoAU3MMR3WiiCadY
/37D8TEEkyt2TsswEgYDVR0TAQH/BAgwBgEB/wIBADAOBgNVHQ8BAf8EBAMCAYYw
DQYJKoZIhvcNAQELBQADggEBACJyGxSJE+mJWNFmWNUq9WZOLeUdudD0lcD6V1P0
k/Jn7RBQt3BrCWJ2OrKXPWhgv26cmdkkRxUbkuO2LW0ODSYMqb22/dRWz3hV+POE
yoaq8VjiiAEJ8qfty8c5BsVktws7LpbPwPcHOhti5PraVBbK6uZu6ozyiZilcQ2w
U8R43ztByIfkhIjciQEFFRMSddJWfyyzsIQIFpw7ne+Edgg0LXRHklbN7Lap1z9C
NYDHwBqLUvZXZDfY9JlpAyoD9GGi8oxG+vKGDKbmNfXZwBq+XcAuiv2ngTfd/eRW
TaXXXQI+KbNz/PCWTviH2yTC6w3KsXB9a8pGK6Q1iQLp2BU=
-----END CERTIFICATE-----
-----BEGIN CERTIFICATE-----
MIIEHTCCAwWgAwIBAgIUQQQ9DgU6ozAacb54r1SnOf1W1zMwDQYJKoZIhvcNAQEL
BQAwfzELMAkGA1UEBhMCQ0gxCzAJBgNVBAgMAlZEMREwDwYDVQQHDAhMYXVzYW5u
ZTEQMA4GA1UECgwHSU1vdmllczELMAkGA1UECwwCQ0ExEDAOBgNVBAMMB2ltb3Zp
ZXMxHzAdBgkqhkiG9w0BCQEWEGFkbWluQGltb3ZpZXMuY2gwHhcNMjExMTI1MTYx
NDE2WhcNMjIxMTI1MTYxNDE2WjB/MQswCQYDVQQGEwJDSDELMAkGA1UECAwCVkQx
ETAPBgNVBAcMCExhdXNhbm5lMRAwDgYDVQQKDAdJTW92aWVzMQswCQYDVQQLDAJD
QTEQMA4GA1UEAwwHaW1vdmllczEfMB0GCSqGSIb3DQEJARYQYWRtaW5AaW1vdmll
cy5jaDCCASIwDQYJKoZIhvcNAQEBBQADggEPADCCAQoCggEBALOqWgQcUA4P78Rh
FJMDvSqKkaSMeVmfkTKlsDD5Ltf2nBQyI6GqvxwpiaC0HB3Z8OTKEBadpFO137s6
l0OsYmtUi+VGEonI+Qa1wZMgI3grNUCvw9EJATov7uDRLuiT9OPm77O3s4w1HDcS
zzMmW1zBd9SaQl83lYhrxXHUYB28GN3naytg5tRilI9yFuWzqQo7v6hdKvDSEvIf
y6KK82du3Iclunillo50u+uqX4Y+hRypChfkmLssGqoBOpctvWFtd1eE/whgnSUp
JazpFRwRrlxPnjC7QMaI1oIZkIzIqnT89/Y6IJeCXkjP2FI0dua3zVEtAxaCtcKV
NRIHhbECAwEAAaOBkDCBjTAdBgNVHQ4EFgQU3MMR3WiiCadY/37D8TEEkyt2Tssw
KgYDVR0RBCMwIYIHaW1vdmllc4ILd2ViLmltb3ZpZXOCCSouaW1vdmllczAfBgNV
HSMEGDAWgBTcwxHdaKIJp1j/fsPxMQSTK3ZOyzAPBgNVHRMBAf8EBTADAQH/MA4G
A1UdDwEB/wQEAwIBhjANBgkqhkiG9w0BAQsFAAOCAQEAM3tJPgqZHBGNzZ+dFytZ
/V4kCzSQw0UiNtR5ry4Gr9L08lSAu/yAP68+EOBvV4wwz74Gj5z0HBIPQ8K1UG8d
+f9PNwA9AxVvIkTtxPRLlLU0Y12VQtg++vjsp/qBsXc82QnNFRaoMjMj+pW7S5BL
O/Ci8RtK/7Z2MHw/ANqt4ximgJSY59O54jsnC185yXKGIujTSvPGNRupjjO7ikUN
u134yVJNuv94+Z8EykDAhASkmfPkTMgnAFGC/BRUDD7I0Kop6xI+9fqPuL5aC4QW
RWb3MFWa/0ApL7tI+qAW5ivBPwgu29V2LWvLc1pS9LWhdBIvRrSTzikfDuzrssFS
/g==
-----END CERTIFICATE-----
Key: odelkyjivtqasmww Secret: 24390971199819214072010642145947439461630915859168075314231965995645118096637852273798455949964301793169166343812508323190092579603869703466784922311369376755839899426778859772663318629717771304474457405673812516766661656057008735196954390473827869185328998788372503548234392183549022474167381598560920823906876395894820979758264801931960684645890132217757182060682771940241436914224351206034940635337021277071349359622354651263652356277524340324687141156680104329262835801035686230627721892394590719654974514130818301978011825826626141616207993873198682597325012770165969782558509556738368316696539405900632873949182